target datalayout = "e-m:e-p270:32:32-p271:32:32-p272:64:64-i64:64-i128:128-f80:128-n8:16:32:64-S128"
target triple = "x86_64-pc-linux-gnu"

%struct.Py_complex = type { double, double }

; Function Attrs: nounwind uwtable
define internal ptr @cmath_isinf_impl(ptr noundef %0, double %1, double %2) #0 {
  %4 = alloca %struct.Py_complex, align 8
  %5 = alloca ptr, align 8
  %6 = getelementptr inbounds nuw { double, double }, ptr %4, i32 0, i32 0
  store double %1, ptr %6, align 8
  %7 = getelementptr inbounds nuw { double, double }, ptr %4, i32 0, i32 1
  store double %2, ptr %7, align 8
  store ptr %0, ptr %5, align 8, !tbaa !3
  %8 = getelementptr inbounds nuw %struct.Py_complex, ptr %4, i32 0, i32 0
  %9 = load double, ptr %8, align 8, !tbaa !17
  %10 = call double @llvm.fabs.f64(double %9) #10
  %11 = fcmp oeq double %10, 0x7FF0000000000000
  %12 = bitcast double %9 to i64
  %13 = icmp slt i64 %12, 0
  %14 = select i1 %13, i32 -1, i32 1
  %15 = select i1 %11, i32 %14, i32 0
  %16 = icmp ne i32 %15, 0
  br i1 %16, label %27, label %17

17:                                               ; preds = %3
  %18 = getelementptr inbounds nuw %struct.Py_complex, ptr %4, i32 0, i32 1
  %19 = load double, ptr %18, align 8, !tbaa !19
  %20 = call double @llvm.fabs.f64(double %19) #10
  %21 = fcmp oeq double %20, 0x7FF0000000000000
  %22 = bitcast double %19 to i64
  %23 = icmp slt i64 %22, 0
  %24 = select i1 %23, i32 -1, i32 1
  %25 = select i1 %21, i32 %24, i32 0
  %26 = icmp ne i32 %25, 0
  br label %27

27:                                               ; preds = %17, %3
  %28 = phi i1 [ true, %3 ], [ %26, %17 ]
  %29 = zext i1 %28 to i32
  %30 = sext i32 %29 to i64
  %31 = call ptr @PyBool_FromLong(i64 noundef %30)
  ret ptr %31
}

; Function Attrs: nounwind uwtable
define internal ptr @cmath_isinf(ptr noundef %0, ptr noundef %1) #0 {
  %3 = alloca ptr, align 8
  %4 = alloca ptr, align 8
  %5 = alloca ptr, align 8
  %6 = alloca %struct.Py_complex, align 8
  %7 = alloca %struct.Py_complex, align 8
  store ptr %0, ptr %3, align 8, !tbaa !3
  store ptr %1, ptr %4, align 8, !tbaa !3
  call void @llvm.lifetime.start.p0(i64 8, ptr %5) #8
  store ptr null, ptr %5, align 8, !tbaa !3
  call void @llvm.lifetime.start.p0(i64 16, ptr %6) #8
  call void @llvm.lifetime.start.p0(i64 16, ptr %7) #8
  %8 = load ptr, ptr %4, align 8, !tbaa !3
  %9 = call { double, double } @PyComplex_AsCComplex(ptr noundef %8)
  %10 = getelementptr inbounds nuw { double, double }, ptr %7, i32 0, i32 0
  %11 = extractvalue { double, double } %9, 0
  store double %11, ptr %10, align 8
  %12 = getelementptr inbounds nuw { double, double }, ptr %7, i32 0, i32 1
  %13 = extractvalue { double, double } %9, 1
  store double %13, ptr %12, align 8
  call void @llvm.memcpy.p0.p0.i64(ptr align 8 %6, ptr align 8 %7, i64 16, i1 false), !tbaa.struct !8
  call void @llvm.lifetime.end.p0(i64 16, ptr %7) #8
  %14 = call ptr @PyErr_Occurred()
  %15 = icmp ne ptr %14, null
  br i1 %15, label %16, label %17

16:                                               ; preds = %2
  br label %24

17:                                               ; preds = %2
  %18 = load ptr, ptr %3, align 8, !tbaa !3
  %19 = getelementptr inbounds nuw { double, double }, ptr %6, i32 0, i32 0
  %20 = load double, ptr %19, align 8
  %21 = getelementptr inbounds nuw { double, double }, ptr %6, i32 0, i32 1
  %22 = load double, ptr %21, align 8
  %23 = call ptr @cmath_isinf_impl(ptr noundef %18, double %20, double %22)
  store ptr %23, ptr %5, align 8, !tbaa !3
  br label %24

24:                                               ; preds = %17, %16
  %25 = load ptr, ptr %5, align 8, !tbaa !3
  call void @llvm.lifetime.end.p0(i64 16, ptr %6) #8
  call void @llvm.lifetime.end.p0(i64 8, ptr %5) #8
  ret ptr %25
}