; Function Attrs: nounwind uwtable
define internal ptr @cmath_isinf(ptr readnone captures(none) %0, ptr noundef %1) #0 {
  %3 = tail call { double, double } @PyComplex_AsCComplex(ptr noundef %1) #11
  %4 = tail call ptr @PyErr_Occurred() #11
  %.not = icmp eq ptr %4, null
  br i1 %.not, label %5, label %14

5:                                                ; preds = %2
  %6 = extractvalue { double, double } %3, 1
  %7 = extractvalue { double, double } %3, 0
  %8 = tail call double @llvm.fabs.f64(double %7) #13
  %9 = fcmp oeq double %8, 0x7FF0000000000000
  %10 = tail call double @llvm.fabs.f64(double %6) #13
  %11 = fcmp oeq double %10, 0x7FF0000000000000
  %narrow.i = select i1 %9, i1 true, i1 %11
  %12 = zext i1 %narrow.i to i64
  %13 = tail call ptr @PyBool_FromLong(i64 noundef %12) #11
  br label %14

14:                                               ; preds = %2, %5
  %.0 = phi ptr [ null, %2 ], [ %13, %5 ]
  ret ptr %.0
}